target datalayout = "e-m:e-p270:32:32-p271:32:32-p272:64:64-i64:64-i128:128-f80:128-n8:16:32:64-S128"
target triple = "x86_64-pc-linux-gnu"

%struct.preference = type { ptr, ptr, ptr, i32, i32, i32, %union.anon, %union.anon.0, %union.anon.1, %union.anon.2, %struct.pref_custom_cbs, ptr, ptr }
%union.anon = type { ptr }
%union.anon.0 = type { ptr }
%union.anon.1 = type { ptr }
%union.anon.2 = type { %struct.anon }
%struct.anon = type { ptr, i8 }
%struct.pref_custom_cbs = type { ptr, ptr, ptr, ptr, ptr, ptr, ptr }

@.str = private unnamed_addr constant [5 x i8] c"Epan\00", align 1
@.str.1 = private unnamed_addr constant [13 x i8] c"epan/prefs.c\00", align 1
@.str.8 = private unnamed_addr constant [31 x i8] c"assertion \22not reached\22 failed\00", align 1
@__func__.pref_stash = private unnamed_addr constant [11 x i8] c"pref_stash\00", align 1

; Function Attrs: null_pointer_is_valid sspstrong uwtable
define i32 @pref_stash(ptr noundef %0, ptr noundef %1) #1 {
  %3 = alloca ptr, align 8
  %4 = alloca ptr, align 8
  store ptr %0, ptr %3, align 8
  store ptr %1, ptr %4, align 8
  %5 = load ptr, ptr %3, align 8
  %6 = getelementptr inbounds nuw %struct.preference, ptr %5, i32 0, i32 4
  %7 = load i32, ptr %6, align 4
  switch i32 %7, label %63 [
    i32 1, label %8
    i32 2, label %15
    i32 4, label %24
    i32 8, label %31
    i32 128, label %31
    i32 16384, label %31
    i32 2048, label %31
    i32 32768, label %31
    i32 131072, label %31
    i32 8192, label %42
    i32 16, label %42
    i32 256, label %55
    i32 32, label %61
    i32 64, label %61
    i32 512, label %61
    i32 65536, label %61
    i32 1024, label %62
  ]

8:                                                ; preds = %2
  %9 = load ptr, ptr %3, align 8
  %10 = getelementptr inbounds nuw %struct.preference, ptr %9, i32 0, i32 6
  %11 = load ptr, ptr %10, align 8
  %12 = load i32, ptr %11, align 4
  %13 = load ptr, ptr %3, align 8
  %14 = getelementptr inbounds nuw %struct.preference, ptr %13, i32 0, i32 7
  store i32 %12, ptr %14, align 8
  br label %63

15:                                               ; preds = %2
  %16 = load ptr, ptr %3, align 8
  %17 = getelementptr inbounds nuw %struct.preference, ptr %16, i32 0, i32 6
  %18 = load ptr, ptr %17, align 8
  %19 = load i8, ptr %18, align 1, !range !6, !noundef !7
  %20 = trunc i8 %19 to i1
  %21 = load ptr, ptr %3, align 8
  %22 = getelementptr inbounds nuw %struct.preference, ptr %21, i32 0, i32 7
  %23 = zext i1 %20 to i8
  store i8 %23, ptr %22, align 8
  br label %63

24:                                               ; preds = %2
  %25 = load ptr, ptr %3, align 8
  %26 = getelementptr inbounds nuw %struct.preference, ptr %25, i32 0, i32 6
  %27 = load ptr, ptr %26, align 8
  %28 = load i32, ptr %27, align 4
  %29 = load ptr, ptr %3, align 8
  %30 = getelementptr inbounds nuw %struct.preference, ptr %29, i32 0, i32 7
  store i32 %28, ptr %30, align 8
  br label %63

31:                                               ; preds = %2, %2, %2, %2, %2, %2
  %32 = load ptr, ptr %3, align 8
  %33 = getelementptr inbounds nuw %struct.preference, ptr %32, i32 0, i32 7
  %34 = load ptr, ptr %33, align 8
  call void @g_free(ptr noundef %34)
  %35 = load ptr, ptr %3, align 8
  %36 = getelementptr inbounds nuw %struct.preference, ptr %35, i32 0, i32 6
  %37 = load ptr, ptr %36, align 8
  %38 = load ptr, ptr %37, align 8
  %39 = call noalias ptr @g_strdup(ptr noundef %38)
  %40 = load ptr, ptr %3, align 8
  %41 = getelementptr inbounds nuw %struct.preference, ptr %40, i32 0, i32 7
  store ptr %39, ptr %41, align 8
  br label %63

42:                                               ; preds = %2, %2
  %43 = call ptr @wmem_epan_scope()
  %44 = load ptr, ptr %3, align 8
  %45 = getelementptr inbounds nuw %struct.preference, ptr %44, i32 0, i32 7
  %46 = load ptr, ptr %45, align 8
  call void @wmem_free(ptr noundef %43, ptr noundef %46)
  %47 = call ptr @wmem_epan_scope()
  %48 = load ptr, ptr %3, align 8
  %49 = getelementptr inbounds nuw %struct.preference, ptr %48, i32 0, i32 6
  %50 = load ptr, ptr %49, align 8
  %51 = load ptr, ptr %50, align 8
  %52 = call ptr @range_copy(ptr noundef %47, ptr noundef %51)
  %53 = load ptr, ptr %3, align 8
  %54 = getelementptr inbounds nuw %struct.preference, ptr %53, i32 0, i32 7
  store ptr %52, ptr %54, align 8
  br label %63

55:                                               ; preds = %2
  %56 = load ptr, ptr %3, align 8
  %57 = getelementptr inbounds nuw %struct.preference, ptr %56, i32 0, i32 7
  %58 = load ptr, ptr %3, align 8
  %59 = getelementptr inbounds nuw %struct.preference, ptr %58, i32 0, i32 6
  %60 = load ptr, ptr %59, align 8
  call void @llvm.memcpy.p0.p0.i64(ptr align 8 %57, ptr align 2 %60, i64 6, i1 false)
  br label %63

61:                                               ; preds = %2, %2, %2, %2
  br label %63

62:                                               ; preds = %2
  call void (ptr, i32, ptr, i64, ptr, ptr, ...) @ws_log_fatal_full(ptr noundef @.str, i32 noundef 7, ptr noundef @.str.1, i64 noundef 2156, ptr noundef @__func__.pref_stash, ptr noundef @.str.8) #18
  unreachable

63:                                               ; preds = %2, %61, %55, %42, %31, %24, %15, %8
  ret i32 0
}