; Function Attrs: null_pointer_is_valid sspstrong uwtable
define noundef i32 @pref_stash(ptr noundef captures(none) %0, ptr noundef readnone captures(none) %1) local_unnamed_addr #1 {
  %3 = getelementptr inbounds nuw i8, ptr %0, i64 28
  %4 = load i32, ptr %3, align 4
  switch i32 %4, label %41 [
    i32 1, label %5
    i32 2, label %10
    i32 4, label %15
    i32 8, label %20
    i32 128, label %20
    i32 16384, label %20
    i32 2048, label %20
    i32 32768, label %20
    i32 131072, label %20
    i32 8192, label %27
    i32 16, label %27
    i32 256, label %36
    i32 1024, label %40
  ]

5:                                                ; preds = %2
  %6 = getelementptr inbounds nuw i8, ptr %0, i64 40
  %7 = load ptr, ptr %6, align 8
  %8 = load i32, ptr %7, align 4
  %9 = getelementptr inbounds nuw i8, ptr %0, i64 48
  store i32 %8, ptr %9, align 8
  br label %41

10:                                               ; preds = %2
  %11 = getelementptr inbounds nuw i8, ptr %0, i64 40
  %12 = load ptr, ptr %11, align 8
  %13 = load i8, ptr %12, align 1, !range !6, !noundef !7
  %14 = getelementptr inbounds nuw i8, ptr %0, i64 48
  store i8 %13, ptr %14, align 8
  br label %41

15:                                               ; preds = %2
  %16 = getelementptr inbounds nuw i8, ptr %0, i64 40
  %17 = load ptr, ptr %16, align 8
  %18 = load i32, ptr %17, align 4
  %19 = getelementptr inbounds nuw i8, ptr %0, i64 48
  store i32 %18, ptr %19, align 8
  br label %41

20:                                               ; preds = %2, %2, %2, %2, %2, %2
  %21 = getelementptr inbounds nuw i8, ptr %0, i64 48
  %22 = load ptr, ptr %21, align 8
  tail call void @g_free(ptr noundef %22)
  %23 = getelementptr inbounds nuw i8, ptr %0, i64 40
  %24 = load ptr, ptr %23, align 8
  %25 = load ptr, ptr %24, align 8
  %26 = tail call noalias ptr @g_strdup(ptr noundef %25)
  store ptr %26, ptr %21, align 8
  br label %41

27:                                               ; preds = %2, %2
  %28 = tail call ptr @wmem_epan_scope()
  %29 = getelementptr inbounds nuw i8, ptr %0, i64 48
  %30 = load ptr, ptr %29, align 8
  tail call void @wmem_free(ptr noundef %28, ptr noundef %30)
  %31 = tail call ptr @wmem_epan_scope()
  %32 = getelementptr inbounds nuw i8, ptr %0, i64 40
  %33 = load ptr, ptr %32, align 8
  %34 = load ptr, ptr %33, align 8
  %35 = tail call ptr @range_copy(ptr noundef %31, ptr noundef %34)
  store ptr %35, ptr %29, align 8
  br label %41

36:                                               ; preds = %2
  %37 = getelementptr inbounds nuw i8, ptr %0, i64 48
  %38 = getelementptr inbounds nuw i8, ptr %0, i64 40
  %39 = load ptr, ptr %38, align 8
  tail call void @llvm.memcpy.p0.p0.i64(ptr noundef nonnull align 8 dereferenceable(6) %37, ptr noundef align 2 dereferenceable(6) %39, i64 6, i1 false)
  br label %41

40:                                               ; preds = %2
  tail call void (ptr, i32, ptr, i64, ptr, ptr, ...) @ws_log_fatal_full(ptr noundef nonnull @.str, i32 noundef 7, ptr noundef nonnull @.str.1, i64 noundef 2156, ptr noundef nonnull @__func__.pref_stash, ptr noundef nonnull @.str.8) #26
  unreachable

41:                                               ; preds = %36, %27, %20, %15, %10, %5, %2
  ret i32 0
}